; ModuleID = '46/637.c'
source_filename = "46/637.c"
target datalayout = "e-m:e-p270:32:32-p271:32:32-p272:64:64-i64:64-f80:128-n8:16:32:64-S128"
target triple = "x86_64-pc-linux-gnu"

@.str = private unnamed_addr constant [5 x i8] c"%d%d\00", align 1
@.str.1 = private unnamed_addr constant [3 x i8] c"%d\00", align 1
@.str.2 = private unnamed_addr constant [4 x i8] c"%d\0A\00", align 1

; Function Attrs: noinline nounwind uwtable
define dso_local void @main() #0 {
  %1 = alloca i32, align 4
  %2 = alloca i32, align 4
  %3 = alloca i32, align 4
  %4 = alloca i32, align 4
  %5 = alloca i32, align 4
  %6 = alloca i32, align 4
  %7 = alloca i32, align 4
  %8 = alloca [100 x [100 x i32]], align 16
  %9 = call i32 (i8*, ...) @__isoc99_scanf(i8* getelementptr inbounds ([5 x i8], [5 x i8]* @.str, i64 0, i64 0), i32* %1, i32* %2)
  store i32 0, i32* %3, align 4
  br label %10

10:                                               ; preds = %33, %0
  %11 = load i32, i32* %3, align 4
  %12 = load i32, i32* %1, align 4
  %13 = sub nsw i32 %12, 1
  %14 = icmp sle i32 %11, %13
  br i1 %14, label %15, label %36

15:                                               ; preds = %10
  store i32 0, i32* %5, align 4
  br label %16

16:                                               ; preds = %29, %15
  %17 = load i32, i32* %5, align 4
  %18 = load i32, i32* %2, align 4
  %19 = sub nsw i32 %18, 1
  %20 = icmp sle i32 %17, %19
  br i1 %20, label %21, label %32

21:                                               ; preds = %16
  %22 = load i32, i32* %3, align 4
  %23 = sext i32 %22 to i64
  %24 = getelementptr inbounds [100 x [100 x i32]], [100 x [100 x i32]]* %8, i64 0, i64 %23
  %25 = load i32, i32* %5, align 4
  %26 = sext i32 %25 to i64
  %27 = getelementptr inbounds [100 x i32], [100 x i32]* %24, i64 0, i64 %26
  %28 = call i32 (i8*, ...) @__isoc99_scanf(i8* getelementptr inbounds ([3 x i8], [3 x i8]* @.str.1, i64 0, i64 0), i32* %27)
  br label %29

29:                                               ; preds = %21
  %30 = load i32, i32* %5, align 4
  %31 = add nsw i32 %30, 1
  store i32 %31, i32* %5, align 4
  br label %16

32:                                               ; preds = %16
  br label %33

33:                                               ; preds = %32
  %34 = load i32, i32* %3, align 4
  %35 = add nsw i32 %34, 1
  store i32 %35, i32* %3, align 4
  br label %10

36:                                               ; preds = %10
  store i32 0, i32* %3, align 4
  store i32 0, i32* %5, align 4
  %37 = load i32, i32* %1, align 4
  %38 = sub nsw i32 %37, 1
  store i32 %38, i32* %4, align 4
  %39 = load i32, i32* %2, align 4
  %40 = sub nsw i32 %39, 1
  store i32 %40, i32* %6, align 4
  br label %41

41:                                               ; preds = %141, %36
  %42 = load i32, i32* %5, align 4
  store i32 %42, i32* %7, align 4
  br label %43

43:                                               ; preds = %56, %41
  %44 = load i32, i32* %7, align 4
  %45 = load i32, i32* %6, align 4
  %46 = icmp sle i32 %44, %45
  br i1 %46, label %47, label %59

47:                                               ; preds = %43
  %48 = load i32, i32* %3, align 4
  %49 = sext i32 %48 to i64
  %50 = getelementptr inbounds [100 x [100 x i32]], [100 x [100 x i32]]* %8, i64 0, i64 %49
  %51 = load i32, i32* %7, align 4
  %52 = sext i32 %51 to i64
  %53 = getelementptr inbounds [100 x i32], [100 x i32]* %50, i64 0, i64 %52
  %54 = load i32, i32* %53, align 4
  %55 = call i32 (i8*, ...) @printf(i8* getelementptr inbounds ([4 x i8], [4 x i8]* @.str.2, i64 0, i64 0), i32 %54)
  br label %56

56:                                               ; preds = %47
  %57 = load i32, i32* %7, align 4
  %58 = add nsw i32 %57, 1
  store i32 %58, i32* %7, align 4
  br label %43

59:                                               ; preds = %43
  %60 = load i32, i32* %3, align 4
  %61 = add nsw i32 %60, 1
  store i32 %61, i32* %3, align 4
  %62 = load i32, i32* %3, align 4
  %63 = load i32, i32* %4, align 4
  %64 = icmp sgt i32 %62, %63
  br i1 %64, label %65, label %66

65:                                               ; preds = %59
  br label %142

66:                                               ; preds = %59
  %67 = load i32, i32* %3, align 4
  store i32 %67, i32* %7, align 4
  br label %68

68:                                               ; preds = %81, %66
  %69 = load i32, i32* %7, align 4
  %70 = load i32, i32* %4, align 4
  %71 = icmp sle i32 %69, %70
  br i1 %71, label %72, label %84

72:                                               ; preds = %68
  %73 = load i32, i32* %7, align 4
  %74 = sext i32 %73 to i64
  %75 = getelementptr inbounds [100 x [100 x i32]], [100 x [100 x i32]]* %8, i64 0, i64 %74
  %76 = load i32, i32* %6, align 4
  %77 = sext i32 %76 to i64
  %78 = getelementptr inbounds [100 x i32], [100 x i32]* %75, i64 0, i64 %77
  %79 = load i32, i32* %78, align 4
  %80 = call i32 (i8*, ...) @printf(i8* getelementptr inbounds ([4 x i8], [4 x i8]* @.str.2, i64 0, i64 0), i32 %79)
  br label %81

81:                                               ; preds = %72
  %82 = load i32, i32* %7, align 4
  %83 = add nsw i32 %82, 1
  store i32 %83, i32* %7, align 4
  br label %68

84:                                               ; preds = %68
  %85 = load i32, i32* %6, align 4
  %86 = add nsw i32 %85, -1
  store i32 %86, i32* %6, align 4
  %87 = load i32, i32* %5, align 4
  %88 = load i32, i32* %6, align 4
  %89 = icmp sgt i32 %87, %88
  br i1 %89, label %90, label %91

90:                                               ; preds = %84
  br label %142

91:                                               ; preds = %84
  %92 = load i32, i32* %6, align 4
  store i32 %92, i32* %7, align 4
  br label %93

93:                                               ; preds = %106, %91
  %94 = load i32, i32* %7, align 4
  %95 = load i32, i32* %5, align 4
  %96 = icmp sge i32 %94, %95
  br i1 %96, label %97, label %109

97:                                               ; preds = %93
  %98 = load i32, i32* %4, align 4
  %99 = sext i32 %98 to i64
  %100 = getelementptr inbounds [100 x [100 x i32]], [100 x [100 x i32]]* %8, i64 0, i64 %99
  %101 = load i32, i32* %7, align 4
  %102 = sext i32 %101 to i64
  %103 = getelementptr inbounds [100 x i32], [100 x i32]* %100, i64 0, i64 %102
  %104 = load i32, i32* %103, align 4
  %105 = call i32 (i8*, ...) @printf(i8* getelementptr inbounds ([4 x i8], [4 x i8]* @.str.2, i64 0, i64 0), i32 %104)
  br label %106

106:                                              ; preds = %97
  %107 = load i32, i32* %7, align 4
  %108 = add nsw i32 %107, -1
  store i32 %108, i32* %7, align 4
  br label %93

109:                                              ; preds = %93
  %110 = load i32, i32* %4, align 4
  %111 = add nsw i32 %110, -1
  store i32 %111, i32* %4, align 4
  %112 = load i32, i32* %3, align 4
  %113 = load i32, i32* %4, align 4
  %114 = icmp sgt i32 %112, %113
  br i1 %114, label %115, label %116

115:                                              ; preds = %109
  br label %142

116:                                              ; preds = %109
  %117 = load i32, i32* %4, align 4
  store i32 %117, i32* %7, align 4
  br label %118

118:                                              ; preds = %131, %116
  %119 = load i32, i32* %7, align 4
  %120 = load i32, i32* %3, align 4
  %121 = icmp sge i32 %119, %120
  br i1 %121, label %122, label %134

122:                                              ; preds = %118
  %123 = load i32, i32* %7, align 4
  %124 = sext i32 %123 to i64
  %125 = getelementptr inbounds [100 x [100 x i32]], [100 x [100 x i32]]* %8, i64 0, i64 %124
  %126 = load i32, i32* %5, align 4
  %127 = sext i32 %126 to i64
  %128 = getelementptr inbounds [100 x i32], [100 x i32]* %125, i64 0, i64 %127
  %129 = load i32, i32* %128, align 4
  %130 = call i32 (i8*, ...) @printf(i8* getelementptr inbounds ([4 x i8], [4 x i8]* @.str.2, i64 0, i64 0), i32 %129)
  br label %131

131:                                              ; preds = %122
  %132 = load i32, i32* %7, align 4
  %133 = add nsw i32 %132, -1
  store i32 %133, i32* %7, align 4
  br label %118

134:                                              ; preds = %118
  %135 = load i32, i32* %5, align 4
  %136 = add nsw i32 %135, 1
  store i32 %136, i32* %5, align 4
  %137 = load i32, i32* %5, align 4
  %138 = load i32, i32* %6, align 4
  %139 = icmp sgt i32 %137, %138
  br i1 %139, label %140, label %141

140:                                              ; preds = %134
  br label %142

141:                                              ; preds = %134
  br label %41

142:                                              ; preds = %140, %115, %90, %65
  ret void
}

declare dso_local i32 @__isoc99_scanf(i8*, ...) #1

declare dso_local i32 @printf(i8*, ...) #1


!llvm.module.flags = !{!0}
!llvm.ident = !{!1}

!0 = !{i32 1, !"wchar_size", i32 4}
!1 = !{!"clang version 10.0.0-4ubuntu1 "}
